; Function Attrs: mustprogress nofree nounwind memory(write, argmem: readwrite, inaccessiblemem: readwrite) uwtable
define hidden noundef double @_ZN2cv3ccm10deltaCIE76ERKNS_3VecIdLi3EEES4_(ptr noundef nonnull readonly align 8 captures(none) dereferenceable(24) %0, ptr noundef nonnull readonly align 8 captures(none) dereferenceable(24) %1) #0 {
  %3 = alloca %"class.cv::Vec", align 8
  call void @llvm.lifetime.start.p0(i64 24, ptr nonnull %3) #16
  tail call void @llvm.experimental.noalias.scope.decl(metadata !3)
  br label %4

4:                                                ; preds = %4, %2
  %indvars.iv.i.i.i = phi i64 [ 0, %2 ], [ %indvars.iv.next.i.i.i, %4 ]
  %5 = getelementptr inbounds nuw [3 x double], ptr %0, i64 0, i64 %indvars.iv.i.i.i
  %6 = load double, ptr %5, align 8, !tbaa !6, !noalias !3
  %7 = getelementptr inbounds nuw [3 x double], ptr %1, i64 0, i64 %indvars.iv.i.i.i
  %8 = load double, ptr %7, align 8, !tbaa !6, !noalias !3
  %9 = fsub double %6, %8
  %10 = getelementptr inbounds nuw [3 x double], ptr %3, i64 0, i64 %indvars.iv.i.i.i
  store double %9, ptr %10, align 8, !tbaa !6, !alias.scope !3
  %indvars.iv.next.i.i.i = add nuw nsw i64 %indvars.iv.i.i.i, 1
  %exitcond.not.i.i.i = icmp eq i64 %indvars.iv.next.i.i.i, 3
  br i1 %exitcond.not.i.i.i, label %_ZN2cvmiIdLi3EEENS_3VecIT_XT0_EEERKS3_S5_.exit, label %4, !llvm.loop !10

_ZN2cvmiIdLi3EEENS_3VecIT_XT0_EEERKS3_S5_.exit:   ; preds = %4, %_ZN2cvmiIdLi3EEENS_3VecIT_XT0_EEERKS3_S5_.exit
  %indvars.iv.i.i = phi i64 [ %indvars.iv.next.i.i, %_ZN2cvmiIdLi3EEENS_3VecIT_XT0_EEERKS3_S5_.exit ], [ 0, %4 ]
  %.010.i.i = phi double [ %13, %_ZN2cvmiIdLi3EEENS_3VecIT_XT0_EEERKS3_S5_.exit ], [ 0.000000e+00, %4 ]
  %11 = getelementptr inbounds nuw double, ptr %3, i64 %indvars.iv.i.i
  %12 = load double, ptr %11, align 8, !tbaa !6
  %13 = tail call double @llvm.fmuladd.f64(double %12, double %12, double %.010.i.i)
  %indvars.iv.next.i.i = add nuw nsw i64 %indvars.iv.i.i, 1
  %exitcond.not.i.i = icmp eq i64 %indvars.iv.next.i.i, 3
  br i1 %exitcond.not.i.i, label %_ZN2cvL4normIdLi3ELi1EEEdRKNS_4MatxIT_XT0_EXT1_EEE.exit, label %_ZN2cvmiIdLi3EEENS_3VecIT_XT0_EEERKS3_S5_.exit, !llvm.loop !12

_ZN2cvL4normIdLi3ELi1EEEdRKNS_4MatxIT_XT0_EXT1_EEE.exit: ; preds = %_ZN2cvmiIdLi3EEENS_3VecIT_XT0_EEERKS3_S5_.exit
  %14 = tail call noundef double @sqrt(double noundef %13) #16, !tbaa !13
  call void @llvm.lifetime.end.p0(i64 24, ptr nonnull %3) #16
  ret double %14
}